Certificate:
    Data:
        Version: 1 (0x0)
        Serial Number: 1048577 (0x100001)
    Signature Algorithm: sha512WithRSAEncryption
        Issuer: C=UK, ST=England, L=London, O=Red Hat, OU=Engineering, CN=localhost/emailAddress=syndesis@redhat.com
        Validity
            Not Before: Dec  5 15:06:46 2018 GMT
            Not After : Dec  2 15:06:46 2028 GMT
        Subject: C=UK, ST=England, O=Red Hat, OU=Engineering, CN=localhost
        Subject Public Key Info:
            Public Key Algorithm: rsaEncryption
                Public-Key: (2048 bit)
                Modulus:
                    00:a9:5a:a2:ed:1f:c0:bb:83:3b:0a:d7:bb:ba:04:
                    21:b5:43:d8:68:62:d8:09:43:c7:d5:03:61:3d:11:
                    bb:5d:da:8b:5c:53:a6:52:84:41:a6:24:5e:7e:0c:
                    7a:c1:ee:7d:9e:d4:f9:91:b3:8e:60:e4:b8:36:8b:
                    24:94:99:d1:fe:c3:70:fe:39:97:1f:da:7b:2b:58:
                    c7:93:4f:10:1f:ba:3e:b3:eb:00:2d:eb:73:eb:cb:
                    f3:06:f8:9a:02:1c:82:36:7d:68:b1:ac:04:75:c2:
                    13:4f:db:2f:84:98:6c:79:60:fe:7e:9a:62:68:fc:
                    01:e2:83:c6:9a:01:57:99:39:8a:4b:9c:a1:6c:13:
                    d3:6b:b4:54:82:4f:b1:d7:34:a9:92:1f:e3:0b:6e:
                    91:0a:d4:a9:61:50:e9:bf:4f:c0:3d:45:e3:94:3a:
                    26:e9:21:93:1c:f3:92:d1:d3:88:bc:28:10:3c:c6:
                    4b:02:ad:21:18:e1:8c:d3:fc:4e:8b:fe:58:7e:d8:
                    de:f4:5f:25:63:a6:6c:d9:73:76:45:18:60:34:81:
                    34:20:26:9a:f7:16:49:be:59:ad:60:bd:7e:ce:90:
                    97:e2:89:5b:61:ba:d7:9f:7a:c1:46:63:39:35:cf:
                    48:17:80:1b:9a:d6:32:1b:81:ef:5c:6b:ec:a1:4e:
                    8a:7d
                Exponent: 65537 (0x10001)
    Signature Algorithm: sha512WithRSAEncryption
         1a:03:2d:25:a1:a1:41:7b:a9:0e:06:24:16:77:3a:68:36:3e:
         17:48:d5:a8:5d:c9:1a:a1:f7:bb:56:15:dd:f8:53:2b:0d:7a:
         1b:ea:31:01:91:5e:b4:0e:b0:e9:d7:7b:83:b0:c6:12:00:d4:
         04:a8:81:e9:19:b7:8b:12:46:ae:b4:f5:77:51:7b:cf:37:0d:
         c2:2d:6f:15:20:73:6c:11:d1:a9:eb:64:aa:c6:4a:e3:c2:62:
         ec:50:d7:b5:df:b6:db:95:50:d4:f8:0b:3b:ce:6e:2e:ee:f7:
         e5:35:b5:46:29:bc:3a:4f:8e:b1:e4:5a:6e:90:40:4c:09:af:
         54:3f:14:1b:b8:67:9e:ba:30:1e:7f:52:e5:31:d6:0d:64:96:
         b6:e2:cb:be:d2:30:b8:ef:20:3b:4c:48:6e:05:18:d0:f0:18:
         24:07:72:76:99:36:c1:d1:e9:f7:28:61:1d:b2:3c:62:df:f1:
         cf:fb:e8:c8:98:bf:7e:27:cf:14:c5:47:61:53:5d:60:e1:54:
         02:55:c4:05:db:b7:00:dc:5f:9c:da:ab:3d:14:ee:9c:76:c4:
         0c:86:e5:2b:69:84:80:58:9e:f6:f3:e6:3b:31:97:95:95:4a:
         b3:27:be:8e:ee:33:62:d7:f9:36:df:c1:8e:e0:c3:2a:c8:06:
         22:28:31:bc
-----BEGIN CERTIFICATE-----
MIIDYjCCAkoCAxAAATANBgkqhkiG9w0BAQ0FADCBkDELMAkGA1UEBhMCVUsxEDAO
BgNVBAgTB0VuZ2xhbmQxDzANBgNVBAcTBkxvbmRvbjEQMA4GA1UEChMHUmVkIEhh
dDEUMBIGA1UECxMLRW5naW5lZXJpbmcxEjAQBgNVBAMTCWxvY2FsaG9zdDEiMCAG
CSqGSIb3DQEJARYTc3luZGVzaXNAcmVkaGF0LmNvbTAeFw0xODEyMDUxNTA2NDZa
Fw0yODEyMDIxNTA2NDZaMFsxCzAJBgNVBAYTAlVLMRAwDgYDVQQIEwdFbmdsYW5k
MRAwDgYDVQQKEwdSZWQgSGF0MRQwEgYDVQQLEwtFbmdpbmVlcmluZzESMBAGA1UE
AxMJbG9jYWxob3N0MIIBIjANBgkqhkiG9w0BAQEFAAOCAQ8AMIIBCgKCAQEAqVqi
7R/Au4M7Cte7ugQhtUPYaGLYCUPH1QNhPRG7XdqLXFOmUoRBpiRefgx6we59ntT5
kbOOYOS4NosklJnR/sNw/jmXH9p7K1jHk08QH7o+s+sALetz68vzBviaAhyCNn1o
sawEdcITT9svhJhseWD+fppiaPwB4oPGmgFXmTmKS5yhbBPTa7RUgk+x1zSpkh/j
C26RCtSpYVDpv0/APUXjlDom6SGTHPOS0dOIvCgQPMZLAq0hGOGM0/xOi/5Yftje
9F8lY6Zs2XN2RRhgNIE0ICaa9xZJvlmtYL1+zpCX4olbYbrXn3rBRmM5Nc9IF4Ab
mtYyG4HvXGvsoU6KfQIDAQABMA0GCSqGSIb3DQEBDQUAA4IBAQAaAy0loaFBe6kO
BiQWdzpoNj4XSNWoXckaofe7VhXd+FMrDXob6jEBkV60DrDp13uDsMYSANQEqIHp
GbeLEkautPV3UXvPNw3CLW8VIHNsEdGp62SqxkrjwmLsUNe137bblVDU+As7zm4u
7vflNbVGKbw6T46x5FpukEBMCa9UPxQbuGeeujAef1LlMdYNZJa24su+0jC47yA7
TEhuBRjQ8BgkB3J2mTbB0en3KGEdsjxi3/HP++jImL9+J88UxUdhU11g4VQCVcQF
27cA3F+c2qs9FO6cdsQMhuUraYSAWJ728+Y7MZeVlUqzJ76O7jNi1/k238GO4MMq
yAYiKDG8
-----END CERTIFICATE-----
