Certificate:
    Data:
        Version: 1 (0x0)
        Serial Number: 1048578 (0x100002)
    Signature Algorithm: sha512WithRSAEncryption
        Issuer: C=UK, ST=England, L=London, O=Red Hat, OU=Engineering, CN=localhost/emailAddress=syndesis@redhat.com
        Validity
            Not Before: Dec  5 21:18:59 2018 GMT
            Not After : Dec  2 21:18:59 2028 GMT
        Subject: C=UK, ST=England, O=Red Hat, OU=Engineering, CN=differenthost
        Subject Public Key Info:
            Public Key Algorithm: rsaEncryption
                Public-Key: (2048 bit)
                Modulus:
                    00:dd:e3:c4:96:14:65:62:7a:8c:14:b2:d0:7a:54:
                    8f:fa:ed:e4:30:3e:f9:0c:67:e2:78:f4:93:3b:3c:
                    31:ca:0e:6c:57:1c:67:03:24:b8:80:ef:9b:f6:44:
                    e5:4a:5a:16:a7:78:99:99:63:19:2b:c2:8a:32:62:
                    fe:0b:bd:32:11:ee:85:86:40:a3:48:12:b2:68:7f:
                    8d:59:9e:d7:7d:10:eb:4a:82:15:a0:3c:d0:71:85:
                    fc:18:4e:08:68:fe:ef:65:6d:7e:87:cd:09:87:c9:
                    aa:25:bf:76:7b:36:24:80:af:39:f0:72:db:21:f0:
                    e8:a6:8e:bd:e9:cc:cf:d3:c7:e7:e0:95:74:50:fe:
                    f7:f7:34:45:91:03:6e:31:34:80:a3:b7:9c:90:f4:
                    7f:ed:42:dc:cc:dc:9c:f0:ed:ef:47:f7:fc:69:fb:
                    9e:32:45:7b:fd:ca:5b:b8:e9:36:bc:4b:a2:93:f5:
                    27:07:01:d3:19:5e:35:6d:9d:76:95:40:47:60:a9:
                    e3:0c:36:55:26:d6:bf:c2:25:b6:8e:65:78:c6:fa:
                    0a:6b:a1:ce:34:1b:60:79:20:2d:3e:8a:72:f1:2d:
                    b8:76:30:f7:37:20:1f:76:f9:0b:e5:74:61:ed:42:
                    28:b5:7c:7e:77:f8:75:e5:77:5d:06:77:68:99:bd:
                    12:0b
                Exponent: 65537 (0x10001)
    Signature Algorithm: sha512WithRSAEncryption
         3c:d2:3b:d3:ec:68:2b:e4:91:3e:40:43:cc:1b:67:51:37:29:
         56:04:ae:30:1a:59:41:a5:1c:66:42:52:16:45:a5:d2:a3:fb:
         34:27:0a:bd:b7:1e:84:38:94:e6:6c:71:22:98:98:cd:fc:84:
         34:3b:14:1c:4e:b1:f9:ce:b9:a2:5e:64:9e:fb:e6:ec:19:60:
         6b:44:11:6e:fd:19:bc:f9:24:a8:ff:05:ed:d8:dd:79:c0:c2:
         5b:e5:9c:8d:7f:ef:6f:97:69:9c:c8:91:a6:1e:74:82:55:84:
         9e:36:b2:e2:50:24:e8:fb:59:89:fa:77:8a:18:85:f1:7c:37:
         58:b0:ef:e8:96:1f:c1:b8:98:39:24:99:7d:e9:b5:d8:c9:3b:
         81:89:f2:e5:12:26:16:45:51:f7:9d:42:51:64:53:34:4a:c6:
         d1:7f:ce:1a:5a:cc:fa:e1:ae:a4:f1:53:43:1f:8b:78:d0:32:
         66:80:a8:46:56:a3:dd:1c:57:9f:ae:43:66:39:96:c4:dd:a2:
         18:91:7c:56:08:74:ec:aa:3f:8f:a1:c6:b4:80:61:f7:c3:03:
         fe:ec:ab:91:1c:5a:6f:49:c5:1b:c2:15:bb:9b:4d:4f:04:6c:
         99:63:fc:00:79:3b:91:59:48:c2:75:f4:17:05:57:8e:33:44:
         0c:18:4c:bb
-----BEGIN CERTIFICATE-----
MIIDZjCCAk4CAxAAAjANBgkqhkiG9w0BAQ0FADCBkDELMAkGA1UEBhMCVUsxEDAO
BgNVBAgTB0VuZ2xhbmQxDzANBgNVBAcTBkxvbmRvbjEQMA4GA1UEChMHUmVkIEhh
dDEUMBIGA1UECxMLRW5naW5lZXJpbmcxEjAQBgNVBAMTCWxvY2FsaG9zdDEiMCAG
CSqGSIb3DQEJARYTc3luZGVzaXNAcmVkaGF0LmNvbTAeFw0xODEyMDUyMTE4NTla
Fw0yODEyMDIyMTE4NTlaMF8xCzAJBgNVBAYTAlVLMRAwDgYDVQQIEwdFbmdsYW5k
MRAwDgYDVQQKEwdSZWQgSGF0MRQwEgYDVQQLEwtFbmdpbmVlcmluZzEWMBQGA1UE
AxMNZGlmZmVyZW50aG9zdDCCASIwDQYJKoZIhvcNAQEBBQADggEPADCCAQoCggEB
AN3jxJYUZWJ6jBSy0HpUj/rt5DA++Qxn4nj0kzs8McoObFccZwMkuIDvm/ZE5Upa
Fqd4mZljGSvCijJi/gu9MhHuhYZAo0gSsmh/jVme130Q60qCFaA80HGF/BhOCGj+
72VtfofNCYfJqiW/dns2JICvOfBy2yHw6KaOvenMz9PH5+CVdFD+9/c0RZEDbjE0
gKO3nJD0f+1C3MzcnPDt70f3/Gn7njJFe/3KW7jpNrxLopP1JwcB0xleNW2ddpVA
R2Cp4ww2VSbWv8Ilto5leMb6CmuhzjQbYHkgLT6KcvEtuHYw9zcgH3b5C+V0Ye1C
KLV8fnf4deV3XQZ3aJm9EgsCAwEAATANBgkqhkiG9w0BAQ0FAAOCAQEAPNI70+xo
K+SRPkBDzBtnUTcpVgSuMBpZQaUcZkJSFkWl0qP7NCcKvbcehDiU5mxxIpiYzfyE
NDsUHE6x+c65ol5knvvm7Blga0QRbv0ZvPkkqP8F7djdecDCW+WcjX/vb5dpnMiR
ph50glWEnjay4lAk6PtZifp3ihiF8Xw3WLDv6JYfwbiYOSSZfem12Mk7gYny5RIm
FkVR951CUWRTNErG0X/OGlrM+uGupPFTQx+LeNAyZoCoRlaj3RxXn65DZjmWxN2i
GJF8Vgh07Ko/j6HGtIBh98MD/uyrkRxab0nFG8IVu5tNTwRsmWP8AHk7kVlIwnX0
FwVXjjNEDBhMuw==
-----END CERTIFICATE-----
